target datalayout = "e-m:e-p270:32:32-p271:32:32-p272:64:64-i64:64-i128:128-f80:128-n8:16:32:64-S128"
target triple = "x86_64-pc-linux-gnu"

%struct.AACArithState = type { [513 x i8], i32, [4 x i8], i16 }

; Function Attrs: nounwind uwtable
define void @ff_aac_ac_update_context(ptr noundef %0, i32 noundef %1, i16 noundef zeroext %2, i16 noundef zeroext %3) #0 {
  %5 = alloca ptr, align 8
  %6 = alloca i32, align 4
  %7 = alloca i16, align 2
  %8 = alloca i16, align 2
  store ptr %0, ptr %5, align 8, !tbaa !4
  store i32 %1, ptr %6, align 4, !tbaa !9
  store i16 %2, ptr %7, align 2, !tbaa !22
  store i16 %3, ptr %8, align 2, !tbaa !22
  %9 = load i16, ptr %7, align 2, !tbaa !22
  %10 = zext i16 %9 to i32
  %11 = load i16, ptr %8, align 2, !tbaa !22
  %12 = zext i16 %11 to i32
  %13 = add nsw i32 %10, %12
  %14 = add nsw i32 %13, 1
  %15 = trunc i32 %14 to i8
  %16 = load ptr, ptr %5, align 8, !tbaa !4
  %17 = getelementptr inbounds nuw %struct.AACArithState, ptr %16, i32 0, i32 2
  %18 = getelementptr inbounds [4 x i8], ptr %17, i64 0, i64 0
  store i8 %15, ptr %18, align 4, !tbaa !16
  %19 = load ptr, ptr %5, align 8, !tbaa !4
  %20 = getelementptr inbounds nuw %struct.AACArithState, ptr %19, i32 0, i32 2
  %21 = getelementptr inbounds [4 x i8], ptr %20, i64 0, i64 0
  %22 = load i8, ptr %21, align 4, !tbaa !16
  %23 = zext i8 %22 to i32
  %24 = icmp sgt i32 %23, 15
  br i1 %24, label %25, label %29

25:                                               ; preds = %4
  %26 = load ptr, ptr %5, align 8, !tbaa !4
  %27 = getelementptr inbounds nuw %struct.AACArithState, ptr %26, i32 0, i32 2
  %28 = getelementptr inbounds [4 x i8], ptr %27, i64 0, i64 0
  store i8 15, ptr %28, align 4, !tbaa !16
  br label %29

29:                                               ; preds = %25, %4
  %30 = load ptr, ptr %5, align 8, !tbaa !4
  %31 = getelementptr inbounds nuw %struct.AACArithState, ptr %30, i32 0, i32 2
  %32 = getelementptr inbounds [4 x i8], ptr %31, i64 0, i64 2
  %33 = load i8, ptr %32, align 2, !tbaa !16
  %34 = load ptr, ptr %5, align 8, !tbaa !4
  %35 = getelementptr inbounds nuw %struct.AACArithState, ptr %34, i32 0, i32 2
  %36 = getelementptr inbounds [4 x i8], ptr %35, i64 0, i64 3
  store i8 %33, ptr %36, align 1, !tbaa !16
  %37 = load ptr, ptr %5, align 8, !tbaa !4
  %38 = getelementptr inbounds nuw %struct.AACArithState, ptr %37, i32 0, i32 2
  %39 = getelementptr inbounds [4 x i8], ptr %38, i64 0, i64 1
  %40 = load i8, ptr %39, align 1, !tbaa !16
  %41 = load ptr, ptr %5, align 8, !tbaa !4
  %42 = getelementptr inbounds nuw %struct.AACArithState, ptr %41, i32 0, i32 2
  %43 = getelementptr inbounds [4 x i8], ptr %42, i64 0, i64 2
  store i8 %40, ptr %43, align 2, !tbaa !16
  %44 = load ptr, ptr %5, align 8, !tbaa !4
  %45 = getelementptr inbounds nuw %struct.AACArithState, ptr %44, i32 0, i32 2
  %46 = getelementptr inbounds [4 x i8], ptr %45, i64 0, i64 0
  %47 = load i8, ptr %46, align 4, !tbaa !16
  %48 = load ptr, ptr %5, align 8, !tbaa !4
  %49 = getelementptr inbounds nuw %struct.AACArithState, ptr %48, i32 0, i32 2
  %50 = getelementptr inbounds [4 x i8], ptr %49, i64 0, i64 1
  store i8 %47, ptr %50, align 1, !tbaa !16
  %51 = load ptr, ptr %5, align 8, !tbaa !4
  %52 = getelementptr inbounds nuw %struct.AACArithState, ptr %51, i32 0, i32 2
  %53 = getelementptr inbounds [4 x i8], ptr %52, i64 0, i64 0
  %54 = load i8, ptr %53, align 4, !tbaa !16
  %55 = load ptr, ptr %5, align 8, !tbaa !4
  %56 = getelementptr inbounds nuw %struct.AACArithState, ptr %55, i32 0, i32 0
  %57 = load i32, ptr %6, align 4, !tbaa !9
  %58 = sext i32 %57 to i64
  %59 = getelementptr inbounds [513 x i8], ptr %56, i64 0, i64 %58
  store i8 %54, ptr %59, align 1, !tbaa !16
  ret void
}