; Function Attrs: mustprogress nofree norecurse nosync nounwind willreturn memory(argmem: readwrite) uwtable
define void @ff_aac_ac_update_context(ptr noundef captures(none) initializes((520, 521), (523, 524)) %0, i32 noundef %1, i16 noundef zeroext %2, i16 noundef zeroext %3) local_unnamed_addr #4 {
  %5 = trunc i16 %2 to i8
  %6 = trunc i16 %3 to i8
  %7 = add i8 %5, 1
  %8 = add i8 %7, %6
  %spec.select = tail call i8 @llvm.umin.i8(i8 %8, i8 15)
  %9 = getelementptr inbounds nuw i8, ptr %0, i64 520
  store i8 %spec.select, ptr %9, align 4, !tbaa !10
  %10 = getelementptr inbounds nuw i8, ptr %0, i64 522
  %11 = load i8, ptr %10, align 2, !tbaa !10
  %12 = getelementptr inbounds nuw i8, ptr %0, i64 523
  store i8 %11, ptr %12, align 1, !tbaa !10
  %13 = getelementptr inbounds nuw i8, ptr %0, i64 521
  %14 = load i8, ptr %13, align 1, !tbaa !10
  store i8 %14, ptr %10, align 2, !tbaa !10
  store i8 %spec.select, ptr %13, align 1, !tbaa !10
  %15 = sext i32 %1 to i64
  %16 = getelementptr inbounds [513 x i8], ptr %0, i64 0, i64 %15
  store i8 %spec.select, ptr %16, align 1, !tbaa !10
  ret void
}